Certificate:
    Data:
        Version: 3 (0x2)
        Serial Number: 1 (0x1)
    Signature Algorithm: sha256WithRSAEncryption
        Issuer: C=IN, ST=Maharashtra, L=Navi Mumbai, O=BH Global Marine India Pvt. Ltd., OU=India Operations, CN=BH Global India/emailAddress=robin.sinha@bhglobal.co.in
        Validity
            Not Before: Jan  5 21:14:57 2016 GMT
            Not After : Jan  3 21:14:57 2021 GMT
        Subject: C=IN, ST=Maharashtra, L=Navi Mumbai, O=BH Global Marine India Pvt. Ltd., CN=BHI Site
        Subject Public Key Info:
            Public Key Algorithm: rsaEncryption
                Public-Key: (2048 bit)
                Modulus:
                    00:bc:3e:9f:a8:8a:30:92:96:8e:4d:fd:c8:01:a8:
                    d8:ef:4e:96:6d:50:05:dd:59:ba:de:4b:f8:2a:03:
                    3a:c3:36:9c:50:bd:16:40:cc:0d:9e:eb:d7:c1:3b:
                    e9:3a:14:a4:da:c4:b7:d0:80:91:53:fd:0d:aa:63:
                    02:8e:e7:ab:b6:b6:ba:e3:71:9d:c6:55:09:ad:c6:
                    d6:72:52:72:c1:e1:c5:e5:c2:d4:a5:65:8e:cb:61:
                    e8:b0:ee:b4:b3:0a:64:93:a7:c9:01:c4:26:d6:4e:
                    1b:90:95:1b:ce:74:98:fb:6b:72:b1:d3:46:b6:be:
                    80:8e:8b:0b:6d:c1:77:ca:29:0a:bb:e9:b8:5d:48:
                    5d:fd:40:c8:fa:a5:d6:af:ab:0d:ad:f1:e2:31:6e:
                    ac:d3:fe:8c:00:30:2c:ed:b8:ca:f8:f6:61:43:cf:
                    41:27:fb:62:c3:42:2d:dc:38:96:5e:7a:83:05:58:
                    66:3b:73:2b:95:30:33:df:50:21:90:f7:3b:67:3a:
                    f7:3a:ae:01:44:1b:e5:0d:63:d9:20:b9:f3:ce:8e:
                    fd:bf:dd:b2:14:a2:61:dc:25:55:7b:e2:39:7c:74:
                    ad:df:62:c0:7d:33:7e:e1:05:ba:3e:f6:23:96:81:
                    ad:91:4b:03:d4:b8:53:6c:3a:24:e6:46:13:84:79:
                    4f:b3
                Exponent: 65537 (0x10001)
        X509v3 extensions:
            X509v3 Subject Key Identifier: 
                E3:DF:B2:4F:2E:2D:37:A1:CF:93:F5:84:89:91:37:03:31:39:48:87
            X509v3 Authority Key Identifier: 
                keyid:12:B2:38:50:85:89:A6:C8:B6:B8:32:B1:5D:01:19:75:57:55:CE:81

            X509v3 Basic Constraints: 
                CA:FALSE
            X509v3 Key Usage: 
                Digital Signature, Key Encipherment
            X509v3 Subject Alternative Name: 
                DNS:bhi.local, DNS:bhglobalindia.ddns.net, DNS:192.168.1.33
            Netscape Comment: 
                OpenSSL Generated Certificate
    Signature Algorithm: sha256WithRSAEncryption
         09:e3:f6:2f:3e:8b:54:00:af:62:1a:ba:53:67:8b:98:2c:6c:
         6f:7a:dc:46:2b:6c:b1:ec:fe:60:3f:b3:4c:51:84:8f:d9:e0:
         91:b7:da:8d:30:c7:60:0b:e2:1e:c1:b0:1b:70:de:23:93:fa:
         9e:09:8b:d9:fb:26:65:8b:e3:d4:b3:78:95:eb:36:4c:1e:62:
         07:43:08:ff:22:3b:44:80:ce:89:b5:b7:fe:ae:44:cd:92:ee:
         da:3c:c9:19:e6:92:45:2d:33:3f:eb:86:b5:36:68:a1:72:61:
         ce:e9:10:e6:71:1a:59:6e:70:29:ca:3a:fc:b6:74:fd:e9:0b:
         1c:bf:85:4d:5a:6b:58:d1:8a:fe:a2:65:79:77:eb:c9:83:ac:
         a1:3d:3d:a1:58:7f:65:f3:e8:69:b4:4d:a3:f3:5c:5b:38:7f:
         51:12:48:8c:18:2a:db:52:39:a5:ba:ad:eb:da:78:46:8d:af:
         52:8f:08:37:b7:99:11:74:bc:1e:b2:b7:65:02:1c:cf:4a:77:
         3d:7f:82:bf:8b:63:ed:6e:e0:71:5d:6f:77:b5:8f:3c:f0:1e:
         c9:c7:7a:ee:72:04:51:73:92:de:38:5c:33:20:f9:9c:cc:2f:
         73:e4:96:f7:e3:8d:02:50:df:bd:9a:af:b2:fe:ae:4b:4b:63:
         be:20:90:38:f5:95:bf:3c:b5:5d:32:9f:e5:7c:7b:39:2c:85:
         4b:8c:93:31:f6:02:c4:f9:b3:e3:5b:ab:cc:2e:29:c0:51:12:
         96:33:d1:41:8d:57:81:3d:39:39:69:f6:60:53:67:1d:94:c3:
         82:20:ba:fa:23:da:d1:45:7e:a9:0c:fb:3f:77:f3:d4:f7:97:
         17:9c:da:b6:2f:d3:76:49:78:00:cb:e6:8c:e2:35:30:e3:75:
         10:df:d5:48:3c:75:ff:2c:df:55:62:5a:e8:49:e5:7d:9b:01:
         9f:33:7a:3c:73:5f:84:c8:12:30:17:59:da:5a:b6:51:8d:aa:
         5e:5a:80:77:13:be:c3:ff:42:f4:71:33:2c:81:0c:59:52:84:
         47:f9:b7:ab:41:ff:6a:42:f5:9b:eb:6a:21:14:d6:0f:a1:db:
         31:05:f9:a2:e1:9f:56:02:8d:49:b0:01:a5:64:ff:e4:39:05:
         e6:fc:0b:e7:60:10:13:2e:09:0e:d3:fa:4c:85:e6:71:ad:43:
         c6:43:75:5f:5e:e3:db:a0:35:ac:cc:11:1d:68:a1:8a:4d:97:
         54:e9:ad:2a:58:f0:41:4e:34:76:bd:b4:0e:e2:04:56:22:30:
         79:bb:9f:e5:a9:47:3c:06:21:15:74:3e:8c:70:d2:94:63:11:
         6c:1d:d6:ba:3d:65:fb:03
-----BEGIN CERTIFICATE-----
MIIFfTCCA2WgAwIBAgIBATANBgkqhkiG9w0BAQsFADCBxDELMAkGA1UEBhMCSU4x
FDASBgNVBAgMC01haGFyYXNodHJhMRQwEgYDVQQHDAtOYXZpIE11bWJhaTEpMCcG
A1UECgwgQkggR2xvYmFsIE1hcmluZSBJbmRpYSBQdnQuIEx0ZC4xGTAXBgNVBAsM
EEluZGlhIE9wZXJhdGlvbnMxGDAWBgNVBAMMD0JIIEdsb2JhbCBJbmRpYTEpMCcG
CSqGSIb3DQEJARYacm9iaW4uc2luaGFAYmhnbG9iYWwuY28uaW4wHhcNMTYwMTA1
MjExNDU3WhcNMjEwMTAzMjExNDU3WjB3MQswCQYDVQQGEwJJTjEUMBIGA1UECAwL
TWFoYXJhc2h0cmExFDASBgNVBAcMC05hdmkgTXVtYmFpMSkwJwYDVQQKDCBCSCBH
bG9iYWwgTWFyaW5lIEluZGlhIFB2dC4gTHRkLjERMA8GA1UEAwwIQkhJIFNpdGUw
ggEiMA0GCSqGSIb3DQEBAQUAA4IBDwAwggEKAoIBAQC8Pp+oijCSlo5N/cgBqNjv
TpZtUAXdWbreS/gqAzrDNpxQvRZAzA2e69fBO+k6FKTaxLfQgJFT/Q2qYwKO56u2
trrjcZ3GVQmtxtZyUnLB4cXlwtSlZY7LYeiw7rSzCmSTp8kBxCbWThuQlRvOdJj7
a3Kx00a2voCOiwttwXfKKQq76bhdSF39QMj6pdavqw2t8eIxbqzT/owAMCztuMr4
9mFDz0En+2LDQi3cOJZeeoMFWGY7cyuVMDPfUCGQ9ztnOvc6rgFEG+UNY9kgufPO
jv2/3bIUomHcJVV74jl8dK3fYsB9M37hBbo+9iOWga2RSwPUuFNsOiTmRhOEeU+z
AgMBAAGjgcUwgcIwHQYDVR0OBBYEFOPfsk8uLTehz5P1hImRNwMxOUiHMB8GA1Ud
IwQYMBaAFBKyOFCFiabItrgysV0BGXVXVc6BMAkGA1UdEwQCMAAwCwYDVR0PBAQD
AgWgMDoGA1UdEQQzMDGCCWJoaS5sb2NhbIIWYmhnbG9iYWxpbmRpYS5kZG5zLm5l
dIIMMTkyLjE2OC4xLjMzMCwGCWCGSAGG+EIBDQQfFh1PcGVuU1NMIEdlbmVyYXRl
ZCBDZXJ0aWZpY2F0ZTANBgkqhkiG9w0BAQsFAAOCAgEACeP2Lz6LVACvYhq6U2eL
mCxsb3rcRitssez+YD+zTFGEj9ngkbfajTDHYAviHsGwG3DeI5P6ngmL2fsmZYvj
1LN4les2TB5iB0MI/yI7RIDOibW3/q5EzZLu2jzJGeaSRS0zP+uGtTZooXJhzukQ
5nEaWW5wKco6/LZ0/ekLHL+FTVprWNGK/qJleXfryYOsoT09oVh/ZfPoabRNo/Nc
Wzh/URJIjBgq21I5pbqt69p4Ro2vUo8IN7eZEXS8HrK3ZQIcz0p3PX+Cv4tj7W7g
cV1vd7WPPPAeycd67nIEUXOS3jhcMyD5nMwvc+SW9+ONAlDfvZqvsv6uS0tjviCQ
OPWVvzy1XTKf5Xx7OSyFS4yTMfYCxPmz41urzC4pwFESljPRQY1XgT05OWn2YFNn
HZTDgiC6+iPa0UV+qQz7P3fz1PeXF5zati/Tdkl4AMvmjOI1MON1EN/VSDx1/yzf
VWJa6EnlfZsBnzN6PHNfhMgSMBdZ2lq2UY2qXlqAdxO+w/9C9HEzLIEMWVKER/m3
q0H/akL1m+tqIRTWD6HbMQX5ouGfVgKNSbABpWT/5DkF5vwL52AQEy4JDtP6TIXm
ca1DxkN1X17j26A1rMwRHWihik2XVOmtKljwQU40dr20DuIEViIwebuf5alHPAYh
FXQ+jHDSlGMRbB3Wuj1l+wM=
-----END CERTIFICATE-----
